(iCrypto.PublicKey.RSA
_RSAobj
p0
(dp2
S'e'
p3
L65537L
sS'd'
p4
L13001905060195905451993524085041296987339795482751804758541691820792114761313147602315860015381672742614084718784900955076086371265059183736185209769634197238228554622058687660380214701536447456134010379203651948460082088520870350551696529749501017608607420721138802222295573035519427751028357042531965200962002242796578050600538311046588931778004683828986109180594215933989460386071409093606898066177826543217593323080111772917120442550469205410794418135485133137121387296285926453878355174805209183849649765216285191845532891143882364245275663983210497439388665707162010196140128903905678198131039557886545124963473L
sS'n'
p5
L24341708619381221950731291434649816621701656189027738915058757266161595872484138559474790545279914487022203914043479800400544835559566466449133579748400742284230839977885511432278413154733307345388065995025702386625961259081079819576830699599869970605476333537144309011100524768006534208968332157242112877091289627822593890378518877430342124642140195176965295922211028571681726135922703171734315378334452069199039655934545488140955728619527580648090972380772332494474920242782592301413859971747550397047144642251120053618188029951813430451908009572865119605207867688539920158013109619903302044710120898996671660516703L
sS'q'
p6
L165892108370396920187355072156221713848381883798846556659614994225754085462885730251158378620186857057340463773030299559145773533010436936884092425933458368726481942318723396305735756223505093047619253876718012972218169222187184547054920092463696328204558472449530760941501124917683787864495044380303962396251L
sS'p'
p7
L146732167421925092694794624074641374984009942304807436493448381036293557573971078924873317971243496925695832317451734840470686291736240008777759765577342662355752496981872618533658035691759573497482976702697686592930693532670909518444154141669023954452461234307933183152976604016457768046164633533967313765453L
sS'u'
p8
L46823495040434895954939694192682745471513251573654547769914697018287783406924586590151159805595473686311630043799520582110451932023649310588470010402470944631418218697225252512471545127149017951345040467658916823299929717942520281156165522716912028351364821332010338653401826276054096763308791273464540595929L
sb.